; Function Attrs: nounwind uwtable
define ptr @l_Lean_Elab_ComputedFields_initFn____x40_Lean_Elab_ComputedFields___hyg_5____lambda__1___boxed(ptr noundef %0, ptr noundef %1, ptr noundef %2, ptr noundef %3) #0 {
  %5 = getelementptr inbounds nuw i8, ptr %1, i64 24
  %6 = load ptr, ptr %5, align 8, !tbaa !4
  %7 = load ptr, ptr @l_Lean_Elab_ComputedFields_initFn____x40_Lean_Elab_ComputedFields___hyg_5____lambda__1___closed__2, align 8, !tbaa !4
  %8 = tail call zeroext i8 @l_Lean_KVMap_getBool(ptr noundef %6, ptr noundef %7, i8 noundef zeroext 0) #4
  %9 = icmp eq i8 %8, 0
  br i1 %9, label %10, label %13

10:                                               ; preds = %4
  %11 = load ptr, ptr @l_Lean_Elab_ComputedFields_initFn____x40_Lean_Elab_ComputedFields___hyg_5____lambda__1___closed__4, align 8, !tbaa !4
  %12 = tail call ptr @l_Lean_throwError___at_Lean_Attribute_Builtin_ensureNoArgs___spec__2(ptr noundef %11, ptr noundef nonnull %1, ptr noundef %2, ptr noundef %3) #4
  br label %l_Lean_Elab_ComputedFields_initFn____x40_Lean_Elab_ComputedFields___hyg_5____lambda__1.exit

13:                                               ; preds = %4
  tail call void @lean_inc_heartbeat() #4
  %14 = tail call noalias ptr @mi_malloc_small(i64 noundef 24) #4
  %15 = icmp eq ptr %14, null
  br i1 %15, label %16, label %lean_alloc_ctor.exit.i

16:                                               ; preds = %13
  tail call void @lean_internal_panic_out_of_memory() #5
  unreachable

lean_alloc_ctor.exit.i:                           ; preds = %13
  %17 = getelementptr inbounds nuw i8, ptr %14, i64 4
  store i32 1, ptr %14, align 4, !tbaa !8
  store i32 131096, ptr %17, align 4
  %18 = getelementptr inbounds nuw i8, ptr %14, i64 8
  store ptr inttoptr (i64 1 to ptr), ptr %18, align 8, !tbaa !4
  %19 = getelementptr inbounds nuw i8, ptr %14, i64 16
  store ptr %3, ptr %19, align 8, !tbaa !4
  br label %l_Lean_Elab_ComputedFields_initFn____x40_Lean_Elab_ComputedFields___hyg_5____lambda__1.exit

l_Lean_Elab_ComputedFields_initFn____x40_Lean_Elab_ComputedFields___hyg_5____lambda__1.exit: ; preds = %10, %lean_alloc_ctor.exit.i
  %.0.i = phi ptr [ %12, %10 ], [ %14, %lean_alloc_ctor.exit.i ]
  %20 = ptrtoint ptr %2 to i64
  %21 = and i64 %20, 1
  %.not = icmp eq i64 %21, 0
  br i1 %.not, label %22, label %lean_dec.exit

22:                                               ; preds = %l_Lean_Elab_ComputedFields_initFn____x40_Lean_Elab_ComputedFields___hyg_5____lambda__1.exit
  %23 = load i32, ptr %2, align 4, !tbaa !8
  %24 = icmp sgt i32 %23, 1
  br i1 %24, label %25, label %27, !prof !13

25:                                               ; preds = %22
  %26 = add nsw i32 %23, -1
  store i32 %26, ptr %2, align 4, !tbaa !8
  br label %lean_dec.exit

27:                                               ; preds = %22
  %.not.i12 = icmp eq i32 %23, 0
  br i1 %.not.i12, label %lean_dec.exit, label %28

28:                                               ; preds = %27
  tail call void @lean_dec_ref_cold(ptr noundef nonnull %2) #4
  br label %lean_dec.exit

lean_dec.exit:                                    ; preds = %28, %27, %25, %l_Lean_Elab_ComputedFields_initFn____x40_Lean_Elab_ComputedFields___hyg_5____lambda__1.exit
  %29 = ptrtoint ptr %1 to i64
  %30 = and i64 %29, 1
  %.not14 = icmp eq i64 %30, 0
  br i1 %.not14, label %31, label %lean_dec.exit8

31:                                               ; preds = %lean_dec.exit
  %32 = load i32, ptr %1, align 4, !tbaa !8
  %33 = icmp sgt i32 %32, 1
  br i1 %33, label %34, label %36, !prof !13

34:                                               ; preds = %31
  %35 = add nsw i32 %32, -1
  store i32 %35, ptr %1, align 4, !tbaa !8
  br label %lean_dec.exit8

36:                                               ; preds = %31
  %.not.i10 = icmp eq i32 %32, 0
  br i1 %.not.i10, label %lean_dec.exit8, label %37

37:                                               ; preds = %36
  tail call void @lean_dec_ref_cold(ptr noundef nonnull %1) #4
  br label %lean_dec.exit8

lean_dec.exit8:                                   ; preds = %37, %36, %34, %lean_dec.exit
  %38 = ptrtoint ptr %0 to i64
  %39 = and i64 %38, 1
  %.not15 = icmp eq i64 %39, 0
  br i1 %.not15, label %40, label %lean_dec.exit9

40:                                               ; preds = %lean_dec.exit8
  %41 = load i32, ptr %0, align 4, !tbaa !8
  %42 = icmp sgt i32 %41, 1
  br i1 %42, label %43, label %45, !prof !13

43:                                               ; preds = %40
  %44 = add nsw i32 %41, -1
  store i32 %44, ptr %0, align 4, !tbaa !8
  br label %lean_dec.exit9

45:                                               ; preds = %40
  %.not.i = icmp eq i32 %41, 0
  br i1 %.not.i, label %lean_dec.exit9, label %46

46:                                               ; preds = %45
  tail call void @lean_dec_ref_cold(ptr noundef nonnull %0) #4
  br label %lean_dec.exit9

lean_dec.exit9:                                   ; preds = %46, %45, %43, %lean_dec.exit8
  ret ptr %.0.i
}